; Function Attrs: mustprogress null_pointer_is_valid sspstrong uwtable
define void @_ZN16ImportTextDialog20encap_buttonsToggledEP15QAbstractButtonb(ptr noundef align 8 dereferenceable_or_null(305) %0, ptr noundef readnone captures(none) %1, i1 noundef zeroext %2) local_unnamed_addr #2 align 2 {
  br i1 %2, label %4, label %7

4:                                                ; preds = %3
  %5 = getelementptr inbounds nuw i8, ptr %0, i64 160
  %6 = load i32, ptr %5, align 8
  tail call void @_ZN16ImportTextDialog19enableHeaderWidgetsEj(ptr noundef align 8 dereferenceable_or_null(305) %0, i32 noundef %6)
  br label %7

7:                                                ; preds = %4, %3
  ret void
}